target datalayout = "e-m:e-p270:32:32-p271:32:32-p272:64:64-i64:64-i128:128-f80:128-n8:16:32:64-S128"
target triple = "x86_64-pc-linux-gnu"

@rb_cArithSeq = hidden global i64 0, align 8
@id_begin = internal global i64 0, align 8
@id_end = internal global i64 0, align 8
@id_step = internal global i64 0, align 8
@id_exclude_end = internal global i64 0, align 8

; Function Attrs: inlinehint nounwind sspstrong uwtable
define internal i64 @arith_seq_exclude_end(i64 noundef %0) #4 {
  %2 = alloca i64, align 8
  store i64 %0, ptr %2, align 8, !tbaa !7
  %3 = load i64, ptr %2, align 8, !tbaa !7
  %4 = load i64, ptr @id_exclude_end, align 8, !tbaa !7
  %5 = call i64 @rb_ivar_get(i64 noundef %3, i64 noundef %4)
  ret i64 %5
}

; Function Attrs: inlinehint nounwind sspstrong uwtable
define internal i32 @arith_seq_exclude_end_p(i64 noundef %0) #4 {
  %2 = alloca i64, align 8
  store i64 %0, ptr %2, align 8, !tbaa !7
  %3 = load i64, ptr %2, align 8, !tbaa !7
  %4 = call i64 @arith_seq_exclude_end(i64 noundef %3)
  %5 = call zeroext i1 @RB_TEST(i64 noundef %4) #24
  %6 = zext i1 %5 to i32
  ret i32 %6
}

; Function Attrs: inlinehint nounwind sspstrong uwtable
define internal i64 @arith_seq_step(i64 noundef %0) #4 {
  %2 = alloca i64, align 8
  store i64 %0, ptr %2, align 8, !tbaa !7
  %3 = load i64, ptr %2, align 8, !tbaa !7
  %4 = load i64, ptr @id_step, align 8, !tbaa !7
  %5 = call i64 @rb_ivar_get(i64 noundef %3, i64 noundef %4)
  ret i64 %5
}

; Function Attrs: inlinehint nounwind sspstrong uwtable
define internal i64 @arith_seq_end(i64 noundef %0) #4 {
  %2 = alloca i64, align 8
  store i64 %0, ptr %2, align 8, !tbaa !7
  %3 = load i64, ptr %2, align 8, !tbaa !7
  %4 = load i64, ptr @id_end, align 8, !tbaa !7
  %5 = call i64 @rb_ivar_get(i64 noundef %3, i64 noundef %4)
  ret i64 %5
}

; Function Attrs: inlinehint nounwind sspstrong uwtable
define internal i64 @arith_seq_begin(i64 noundef %0) #4 {
  %2 = alloca i64, align 8
  store i64 %0, ptr %2, align 8, !tbaa !7
  %3 = load i64, ptr %2, align 8, !tbaa !7
  %4 = load i64, ptr @id_begin, align 8, !tbaa !7
  %5 = call i64 @rb_ivar_get(i64 noundef %3, i64 noundef %4)
  ret i64 %5
}

; Function Attrs: inlinehint nounwind sspstrong willreturn memory(none) uwtable
define internal zeroext i1 @RB_TEST(i64 noundef %0) #2 {
  %2 = alloca i64, align 8
  store i64 %0, ptr %2, align 8, !tbaa !7
  %3 = load i64, ptr %2, align 8, !tbaa !7
  %4 = and i64 %3, -5
  %5 = icmp ne i64 %4, 0
  ret i1 %5
}

; Function Attrs: nounwind sspstrong uwtable
define internal i64 @arith_seq_eq(i64 noundef %0, i64 noundef %1) #0 {
  %3 = alloca i64, align 8
  %4 = alloca i64, align 8
  %5 = alloca i64, align 8
  store i64 %0, ptr %4, align 8, !tbaa !7
  store i64 %1, ptr %5, align 8, !tbaa !7
  %6 = load i64, ptr %5, align 8, !tbaa !7
  %7 = load i64, ptr @rb_cArithSeq, align 8, !tbaa !7
  %8 = call i64 @rb_obj_is_kind_of(i64 noundef %6, i64 noundef %7)
  %9 = call zeroext i1 @RB_TEST(i64 noundef %8) #24
  br i1 %9, label %11, label %10

10:                                               ; preds = %2
  store i64 0, ptr %3, align 8
  br label %43

11:                                               ; preds = %2
  %12 = load i64, ptr %4, align 8, !tbaa !7
  %13 = call i64 @arith_seq_begin(i64 noundef %12)
  %14 = load i64, ptr %5, align 8, !tbaa !7
  %15 = call i64 @arith_seq_begin(i64 noundef %14)
  %16 = call i64 @rb_equal(i64 noundef %13, i64 noundef %15)
  %17 = icmp ne i64 %16, 0
  br i1 %17, label %19, label %18

18:                                               ; preds = %11
  store i64 0, ptr %3, align 8
  br label %43

19:                                               ; preds = %11
  %20 = load i64, ptr %4, align 8, !tbaa !7
  %21 = call i64 @arith_seq_end(i64 noundef %20)
  %22 = load i64, ptr %5, align 8, !tbaa !7
  %23 = call i64 @arith_seq_end(i64 noundef %22)
  %24 = call i64 @rb_equal(i64 noundef %21, i64 noundef %23)
  %25 = icmp ne i64 %24, 0
  br i1 %25, label %27, label %26

26:                                               ; preds = %19
  store i64 0, ptr %3, align 8
  br label %43

27:                                               ; preds = %19
  %28 = load i64, ptr %4, align 8, !tbaa !7
  %29 = call i64 @arith_seq_step(i64 noundef %28)
  %30 = load i64, ptr %5, align 8, !tbaa !7
  %31 = call i64 @arith_seq_step(i64 noundef %30)
  %32 = call i64 @rb_equal(i64 noundef %29, i64 noundef %31)
  %33 = icmp ne i64 %32, 0
  br i1 %33, label %35, label %34

34:                                               ; preds = %27
  store i64 0, ptr %3, align 8
  br label %43

35:                                               ; preds = %27
  %36 = load i64, ptr %4, align 8, !tbaa !7
  %37 = call i32 @arith_seq_exclude_end_p(i64 noundef %36)
  %38 = load i64, ptr %5, align 8, !tbaa !7
  %39 = call i32 @arith_seq_exclude_end_p(i64 noundef %38)
  %40 = icmp ne i32 %37, %39
  br i1 %40, label %41, label %42

41:                                               ; preds = %35
  store i64 0, ptr %3, align 8
  br label %43

42:                                               ; preds = %35
  store i64 20, ptr %3, align 8
  br label %43

43:                                               ; preds = %42, %41, %34, %26, %18, %10
  %44 = load i64, ptr %3, align 8
  ret i64 %44
}