; Function Attrs: nounwind sspstrong uwtable
define internal range(i64 0, 21) i64 @arith_seq_eq(i64 noundef %0, i64 noundef %1) #0 {
  %3 = load i64, ptr @rb_cArithSeq, align 8, !tbaa !7
  %4 = tail call i64 @rb_obj_is_kind_of(i64 noundef %1, i64 noundef %3) #18
  %5 = and i64 %4, -5
  %.not13 = icmp eq i64 %5, 0
  br i1 %.not13, label %33, label %6

6:                                                ; preds = %2
  %7 = load i64, ptr @id_begin, align 8, !tbaa !7
  %8 = tail call i64 @rb_ivar_get(i64 noundef %0, i64 noundef %7) #18
  %9 = load i64, ptr @id_begin, align 8, !tbaa !7
  %10 = tail call i64 @rb_ivar_get(i64 noundef %1, i64 noundef %9) #18
  %11 = tail call i64 @rb_equal(i64 noundef %8, i64 noundef %10) #18
  %.not = icmp eq i64 %11, 0
  br i1 %.not, label %33, label %12

12:                                               ; preds = %6
  %13 = load i64, ptr @id_end, align 8, !tbaa !7
  %14 = tail call i64 @rb_ivar_get(i64 noundef %0, i64 noundef %13) #18
  %15 = load i64, ptr @id_end, align 8, !tbaa !7
  %16 = tail call i64 @rb_ivar_get(i64 noundef %1, i64 noundef %15) #18
  %17 = tail call i64 @rb_equal(i64 noundef %14, i64 noundef %16) #18
  %.not10 = icmp eq i64 %17, 0
  br i1 %.not10, label %33, label %18

18:                                               ; preds = %12
  %19 = load i64, ptr @id_step, align 8, !tbaa !7
  %20 = tail call i64 @rb_ivar_get(i64 noundef %0, i64 noundef %19) #18
  %21 = load i64, ptr @id_step, align 8, !tbaa !7
  %22 = tail call i64 @rb_ivar_get(i64 noundef %1, i64 noundef %21) #18
  %23 = tail call i64 @rb_equal(i64 noundef %20, i64 noundef %22) #18
  %.not11 = icmp eq i64 %23, 0
  br i1 %.not11, label %33, label %24

24:                                               ; preds = %18
  %25 = load i64, ptr @id_exclude_end, align 8, !tbaa !7
  %26 = tail call i64 @rb_ivar_get(i64 noundef %0, i64 noundef %25) #18
  %27 = and i64 %26, -5
  %28 = icmp ne i64 %27, 0
  %29 = load i64, ptr @id_exclude_end, align 8, !tbaa !7
  %30 = tail call i64 @rb_ivar_get(i64 noundef %1, i64 noundef %29) #18
  %31 = and i64 %30, -5
  %32 = icmp eq i64 %31, 0
  %.not12 = xor i1 %28, %32
  %. = select i1 %.not12, i64 20, i64 0
  br label %33

33:                                               ; preds = %24, %18, %12, %6, %2
  %.0 = phi i64 [ 0, %2 ], [ 0, %6 ], [ 0, %12 ], [ 0, %18 ], [ %., %24 ]
  ret i64 %.0
}